target datalayout = "e-m:e-p270:32:32-p271:32:32-p272:64:64-i64:64-i128:128-f80:128-n8:16:32:64-S128"
target triple = "x86_64-pc-linux-gnu"

%struct.AVRational = type { i32, i32 }
%struct.AVBufferRef = type { ptr, ptr, i64 }
%struct.FrameData = type { i64, %struct.anon, %struct.AVRational, i32, [7 x i64], ptr }
%struct.anon = type { i64, i64, %struct.AVRational }

; Function Attrs: nounwind uwtable
define internal i32 @frame_data_ensure(ptr noundef %0, i32 noundef %1) #0 {
  %3 = alloca i32, align 4
  %4 = alloca ptr, align 8
  %5 = alloca i32, align 4
  %6 = alloca ptr, align 8
  %7 = alloca ptr, align 8
  %8 = alloca i32, align 4
  %9 = alloca ptr, align 8
  %10 = alloca i32, align 4
  %11 = alloca i32, align 4
  store ptr %0, ptr %4, align 8, !tbaa !85
  store i32 %1, ptr %5, align 4, !tbaa !4
  call void @llvm.lifetime.start.p0(i64 8, ptr %6) #12
  %12 = load ptr, ptr %4, align 8, !tbaa !85
  %13 = load ptr, ptr %12, align 8, !tbaa !86
  store ptr %13, ptr %6, align 8, !tbaa !86
  %14 = load ptr, ptr %6, align 8, !tbaa !86
  %15 = icmp ne ptr %14, null
  br i1 %15, label %16, label %23

16:                                               ; preds = %2
  %17 = load i32, ptr %5, align 4, !tbaa !4
  %18 = icmp ne i32 %17, 0
  br i1 %18, label %19, label %109

19:                                               ; preds = %16
  %20 = load ptr, ptr %6, align 8, !tbaa !86
  %21 = call i32 @av_buffer_is_writable(ptr noundef %20)
  %22 = icmp ne i32 %21, 0
  br i1 %22, label %109, label %23

23:                                               ; preds = %19, %2
  call void @llvm.lifetime.start.p0(i64 8, ptr %7) #12
  %24 = call noalias ptr @av_mallocz(i64 noundef 112)
  store ptr %24, ptr %7, align 8, !tbaa !87
  %25 = load ptr, ptr %7, align 8, !tbaa !87
  %26 = icmp ne ptr %25, null
  br i1 %26, label %28, label %27

27:                                               ; preds = %23
  store i32 -12, ptr %3, align 4
  store i32 1, ptr %8, align 4
  br label %106

28:                                               ; preds = %23
  %29 = load ptr, ptr %7, align 8, !tbaa !87
  %30 = call ptr @av_buffer_create(ptr noundef %29, i64 noundef 112, ptr noundef @frame_data_free, ptr noundef null, i32 noundef 0)
  %31 = load ptr, ptr %4, align 8, !tbaa !85
  store ptr %30, ptr %31, align 8, !tbaa !86
  %32 = load ptr, ptr %4, align 8, !tbaa !85
  %33 = load ptr, ptr %32, align 8, !tbaa !86
  %34 = icmp ne ptr %33, null
  br i1 %34, label %36, label %35

35:                                               ; preds = %28
  call void @av_buffer_unref(ptr noundef %6)
  call void @av_freep(ptr noundef %7)
  store i32 -12, ptr %3, align 4
  store i32 1, ptr %8, align 4
  br label %106

36:                                               ; preds = %28
  %37 = load ptr, ptr %6, align 8, !tbaa !86
  %38 = icmp ne ptr %37, null
  br i1 %38, label %39, label %83

39:                                               ; preds = %36
  call void @llvm.lifetime.start.p0(i64 8, ptr %9) #12
  %40 = load ptr, ptr %6, align 8, !tbaa !86
  %41 = getelementptr inbounds nuw %struct.AVBufferRef, ptr %40, i32 0, i32 1
  %42 = load ptr, ptr %41, align 8, !tbaa !82
  store ptr %42, ptr %9, align 8, !tbaa !87
  %43 = load ptr, ptr %7, align 8, !tbaa !87
  %44 = load ptr, ptr %9, align 8, !tbaa !87
  call void @llvm.memcpy.p0.p0.i64(ptr align 8 %43, ptr align 8 %44, i64 112, i1 false)
  %45 = load ptr, ptr %7, align 8, !tbaa !87
  %46 = getelementptr inbounds nuw %struct.FrameData, ptr %45, i32 0, i32 5
  store ptr null, ptr %46, align 8, !tbaa !89
  %47 = load ptr, ptr %9, align 8, !tbaa !87
  %48 = getelementptr inbounds nuw %struct.FrameData, ptr %47, i32 0, i32 5
  %49 = load ptr, ptr %48, align 8, !tbaa !89
  %50 = icmp ne ptr %49, null
  br i1 %50, label %51, label %79

51:                                               ; preds = %39
  call void @llvm.lifetime.start.p0(i64 4, ptr %10) #12
  store i32 0, ptr %10, align 4, !tbaa !4
  %52 = call ptr @avcodec_parameters_alloc()
  %53 = load ptr, ptr %7, align 8, !tbaa !87
  %54 = getelementptr inbounds nuw %struct.FrameData, ptr %53, i32 0, i32 5
  store ptr %52, ptr %54, align 8, !tbaa !89
  %55 = load ptr, ptr %7, align 8, !tbaa !87
  %56 = getelementptr inbounds nuw %struct.FrameData, ptr %55, i32 0, i32 5
  %57 = load ptr, ptr %56, align 8, !tbaa !89
  %58 = icmp ne ptr %57, null
  br i1 %58, label %59, label %67

59:                                               ; preds = %51
  %60 = load ptr, ptr %7, align 8, !tbaa !87
  %61 = getelementptr inbounds nuw %struct.FrameData, ptr %60, i32 0, i32 5
  %62 = load ptr, ptr %61, align 8, !tbaa !89
  %63 = load ptr, ptr %9, align 8, !tbaa !87
  %64 = getelementptr inbounds nuw %struct.FrameData, ptr %63, i32 0, i32 5
  %65 = load ptr, ptr %64, align 8, !tbaa !89
  %66 = call i32 @avcodec_parameters_copy(ptr noundef %62, ptr noundef %65)
  br label %68

67:                                               ; preds = %51
  br label %68

68:                                               ; preds = %67, %59
  %69 = phi i32 [ %66, %59 ], [ -12, %67 ]
  store i32 %69, ptr %10, align 4, !tbaa !4
  %70 = load i32, ptr %10, align 4, !tbaa !4
  %71 = icmp slt i32 %70, 0
  br i1 %71, label %72, label %75

72:                                               ; preds = %68
  %73 = load ptr, ptr %4, align 8, !tbaa !85
  call void @av_buffer_unref(ptr noundef %73)
  call void @av_buffer_unref(ptr noundef %6)
  %74 = load i32, ptr %10, align 4, !tbaa !4
  store i32 %74, ptr %3, align 4
  store i32 1, ptr %8, align 4
  br label %76

75:                                               ; preds = %68
  store i32 0, ptr %8, align 4
  br label %76

76:                                               ; preds = %75, %72
  call void @llvm.lifetime.end.p0(i64 4, ptr %10) #12
  %77 = load i32, ptr %8, align 4
  switch i32 %77, label %80 [
    i32 0, label %78
  ]

78:                                               ; preds = %76
  br label %79

79:                                               ; preds = %78, %39
  call void @av_buffer_unref(ptr noundef %6)
  store i32 0, ptr %8, align 4
  br label %80

80:                                               ; preds = %79, %76
  call void @llvm.lifetime.end.p0(i64 8, ptr %9) #12
  %81 = load i32, ptr %8, align 4
  switch i32 %81, label %106 [
    i32 0, label %82
  ]

82:                                               ; preds = %80
  br label %105

83:                                               ; preds = %36
  %84 = load ptr, ptr %7, align 8, !tbaa !87
  %85 = getelementptr inbounds nuw %struct.FrameData, ptr %84, i32 0, i32 1
  %86 = getelementptr inbounds nuw %struct.anon, ptr %85, i32 0, i32 0
  store i64 -1, ptr %86, align 8, !tbaa !92
  %87 = load ptr, ptr %7, align 8, !tbaa !87
  %88 = getelementptr inbounds nuw %struct.FrameData, ptr %87, i32 0, i32 1
  %89 = getelementptr inbounds nuw %struct.anon, ptr %88, i32 0, i32 1
  store i64 -9223372036854775808, ptr %89, align 8, !tbaa !93
  call void @llvm.lifetime.start.p0(i64 4, ptr %11) #12
  store i32 0, ptr %11, align 4, !tbaa !4
  br label %90

90:                                               ; preds = %101, %83
  %91 = load i32, ptr %11, align 4, !tbaa !4
  %92 = zext i32 %91 to i64
  %93 = icmp ult i64 %92, 7
  br i1 %93, label %95, label %94

94:                                               ; preds = %90
  store i32 2, ptr %8, align 4
  call void @llvm.lifetime.end.p0(i64 4, ptr %11) #12
  br label %104

95:                                               ; preds = %90
  %96 = load ptr, ptr %7, align 8, !tbaa !87
  %97 = getelementptr inbounds nuw %struct.FrameData, ptr %96, i32 0, i32 4
  %98 = load i32, ptr %11, align 4, !tbaa !4
  %99 = zext i32 %98 to i64
  %100 = getelementptr inbounds nuw [7 x i64], ptr %97, i64 0, i64 %99
  store i64 -9223372036854775808, ptr %100, align 8, !tbaa !94
  br label %101

101:                                              ; preds = %95
  %102 = load i32, ptr %11, align 4, !tbaa !4
  %103 = add i32 %102, 1
  store i32 %103, ptr %11, align 4, !tbaa !4
  br label %90, !llvm.loop !95

104:                                              ; preds = %94
  br label %105

105:                                              ; preds = %104, %82
  store i32 0, ptr %8, align 4
  br label %106

106:                                              ; preds = %105, %80, %35, %27
  call void @llvm.lifetime.end.p0(i64 8, ptr %7) #12
  %107 = load i32, ptr %8, align 4
  switch i32 %107, label %110 [
    i32 0, label %108
  ]

108:                                              ; preds = %106
  br label %109

109:                                              ; preds = %108, %19, %16
  store i32 0, ptr %3, align 4
  store i32 1, ptr %8, align 4
  br label %110

110:                                              ; preds = %109, %106
  call void @llvm.lifetime.end.p0(i64 8, ptr %6) #12
  %111 = load i32, ptr %3, align 4
  ret i32 %111
}