; Function Attrs: nounwind uwtable
define internal fastcc range(i32 -2147483648, 1) i32 @frame_data_ensure(ptr noundef %0, i32 noundef range(i32 0, 2) %1) unnamed_addr #0 {
  %3 = alloca ptr, align 8
  %4 = alloca ptr, align 8
  call void @llvm.lifetime.start.p0(i64 8, ptr nonnull %3) #17
  %5 = load ptr, ptr %0, align 8, !tbaa !82
  store ptr %5, ptr %3, align 8, !tbaa !82
  %.not = icmp eq ptr %5, null
  br i1 %.not, label %9, label %6

6:                                                ; preds = %2
  %.not27 = icmp eq i32 %1, 0
  br i1 %.not27, label %34, label %7

7:                                                ; preds = %6
  %8 = tail call i32 @av_buffer_is_writable(ptr noundef nonnull %5) #17
  %.not28 = icmp eq i32 %8, 0
  br i1 %.not28, label %9, label %34

9:                                                ; preds = %7, %2
  call void @llvm.lifetime.start.p0(i64 8, ptr nonnull %4) #17
  %10 = tail call noalias ptr @av_mallocz(i64 noundef 112) #17
  store ptr %10, ptr %4, align 8, !tbaa !83
  %.not29 = icmp eq ptr %10, null
  br i1 %.not29, label %.sink.split, label %11

11:                                               ; preds = %9
  %12 = tail call ptr @av_buffer_create(ptr noundef nonnull %10, i64 noundef 112, ptr noundef nonnull @frame_data_free, ptr noundef null, i32 noundef 0) #17
  store ptr %12, ptr %0, align 8, !tbaa !82
  %.not30 = icmp eq ptr %12, null
  br i1 %.not30, label %13, label %14

13:                                               ; preds = %11
  call void @av_buffer_unref(ptr noundef nonnull %3) #17
  call void @av_freep(ptr noundef nonnull %4) #17
  br label %.sink.split

14:                                               ; preds = %11
  br i1 %.not, label %28, label %15

15:                                               ; preds = %14
  %16 = getelementptr inbounds nuw i8, ptr %5, i64 8
  %17 = load ptr, ptr %16, align 8, !tbaa !79
  tail call void @llvm.memcpy.p0.p0.i64(ptr noundef nonnull align 8 dereferenceable(112) %10, ptr noundef nonnull align 8 dereferenceable(112) %17, i64 104, i1 false)
  %18 = getelementptr inbounds nuw i8, ptr %10, i64 104
  store ptr null, ptr %18, align 8, !tbaa !85
  %19 = getelementptr inbounds nuw i8, ptr %17, i64 104
  %20 = load ptr, ptr %19, align 8, !tbaa !85
  %.not32 = icmp eq ptr %20, null
  br i1 %.not32, label %.critedge, label %21

21:                                               ; preds = %15
  %22 = tail call ptr @avcodec_parameters_alloc() #17
  store ptr %22, ptr %18, align 8, !tbaa !85
  %.not33 = icmp eq ptr %22, null
  br i1 %.not33, label %.thread, label %23

23:                                               ; preds = %21
  %24 = load ptr, ptr %19, align 8, !tbaa !85
  %25 = tail call i32 @avcodec_parameters_copy(ptr noundef nonnull %22, ptr noundef %24) #17
  %26 = icmp sgt i32 %25, -1
  br i1 %26, label %.critedge, label %.thread

.thread:                                          ; preds = %21, %23
  %27 = phi i32 [ %25, %23 ], [ -12, %21 ]
  tail call void @av_buffer_unref(ptr noundef nonnull %0) #17
  call void @av_buffer_unref(ptr noundef nonnull %3) #17
  br label %.sink.split

.critedge:                                        ; preds = %23, %15
  call void @av_buffer_unref(ptr noundef nonnull %3) #17
  br label %.sink.split

28:                                               ; preds = %14
  %29 = getelementptr inbounds nuw i8, ptr %10, i64 8
  store i64 -1, ptr %29, align 8, !tbaa !88
  %30 = getelementptr inbounds nuw i8, ptr %10, i64 16
  store i64 -9223372036854775808, ptr %30, align 8, !tbaa !89
  %31 = getelementptr inbounds nuw i8, ptr %10, i64 48
  br label %32

32:                                               ; preds = %28, %32
  %indvars.iv = phi i64 [ 0, %28 ], [ %indvars.iv.next, %32 ]
  %33 = getelementptr inbounds nuw [7 x i64], ptr %31, i64 0, i64 %indvars.iv
  store i64 -9223372036854775808, ptr %33, align 8, !tbaa !90
  %indvars.iv.next = add nuw nsw i64 %indvars.iv, 1
  %exitcond.not = icmp eq i64 %indvars.iv.next, 7
  br i1 %exitcond.not, label %.sink.split, label %32, !llvm.loop !91

.sink.split:                                      ; preds = %32, %.critedge, %.thread, %9, %13
  %.5.ph = phi i32 [ %27, %.thread ], [ -12, %9 ], [ -12, %13 ], [ 0, %.critedge ], [ 0, %32 ]
  call void @llvm.lifetime.end.p0(i64 8, ptr nonnull %4) #17
  br label %34

34:                                               ; preds = %.sink.split, %6, %7
  %.5 = phi i32 [ 0, %7 ], [ 0, %6 ], [ %.5.ph, %.sink.split ]
  call void @llvm.lifetime.end.p0(i64 8, ptr nonnull %3) #17
  ret i32 %.5
}